target datalayout = "e-m:e-p270:32:32-p271:32:32-p272:64:64-i64:64-i128:128-f80:128-n8:16:32:64-S128"
target triple = "x86_64-pc-linux-gnu"

%struct.PLpgSQL_datum = type { i32, i32 }
%struct.PLpgSQL_row = type { i32, i32, ptr, i32, i8, i8, ptr, ptr, i32, ptr, ptr }

@.str.8 = private unnamed_addr constant [14 x i8] c"(unnamed row)\00", align 1

; Function Attrs: nounwind uwtable
define internal ptr @make_scalar_list1(ptr noundef %0, ptr noundef %1, i32 noundef %2, i32 noundef %3, ptr noundef %4) #0 {
  %6 = alloca ptr, align 8
  %7 = alloca ptr, align 8
  %8 = alloca i32, align 4
  %9 = alloca i32, align 4
  %10 = alloca ptr, align 8
  %11 = alloca ptr, align 8
  store ptr %0, ptr %6, align 8
  store ptr %1, ptr %7, align 8
  store i32 %2, ptr %8, align 4
  store i32 %3, ptr %9, align 4
  store ptr %4, ptr %10, align 8
  call void @llvm.lifetime.start.p0(i64 8, ptr %11) #10
  %12 = load ptr, ptr %7, align 8
  %13 = load i32, ptr %9, align 4
  %14 = load ptr, ptr %10, align 8
  call void @check_assignable(ptr noundef %12, i32 noundef %13, ptr noundef %14)
  %15 = call ptr @palloc0(i64 noundef 64)
  store ptr %15, ptr %11, align 8
  %16 = load ptr, ptr %11, align 8
  %17 = getelementptr inbounds nuw %struct.PLpgSQL_row, ptr %16, i32 0, i32 0
  store i32 1, ptr %17, align 8
  %18 = load ptr, ptr %11, align 8
  %19 = getelementptr inbounds nuw %struct.PLpgSQL_row, ptr %18, i32 0, i32 2
  store ptr @.str.8, ptr %19, align 8
  %20 = load i32, ptr %8, align 4
  %21 = load ptr, ptr %11, align 8
  %22 = getelementptr inbounds nuw %struct.PLpgSQL_row, ptr %21, i32 0, i32 3
  store i32 %20, ptr %22, align 8
  %23 = load ptr, ptr %11, align 8
  %24 = getelementptr inbounds nuw %struct.PLpgSQL_row, ptr %23, i32 0, i32 7
  store ptr null, ptr %24, align 8
  %25 = load ptr, ptr %11, align 8
  %26 = getelementptr inbounds nuw %struct.PLpgSQL_row, ptr %25, i32 0, i32 8
  store i32 1, ptr %26, align 8
  %27 = call ptr @palloc(i64 noundef 8)
  %28 = load ptr, ptr %11, align 8
  %29 = getelementptr inbounds nuw %struct.PLpgSQL_row, ptr %28, i32 0, i32 9
  store ptr %27, ptr %29, align 8
  %30 = call ptr @palloc(i64 noundef 4)
  %31 = load ptr, ptr %11, align 8
  %32 = getelementptr inbounds nuw %struct.PLpgSQL_row, ptr %31, i32 0, i32 10
  store ptr %30, ptr %32, align 8
  %33 = load ptr, ptr %6, align 8
  %34 = load ptr, ptr %11, align 8
  %35 = getelementptr inbounds nuw %struct.PLpgSQL_row, ptr %34, i32 0, i32 9
  %36 = load ptr, ptr %35, align 8
  %37 = getelementptr inbounds ptr, ptr %36, i64 0
  store ptr %33, ptr %37, align 8
  %38 = load ptr, ptr %7, align 8
  %39 = getelementptr inbounds nuw %struct.PLpgSQL_datum, ptr %38, i32 0, i32 1
  %40 = load i32, ptr %39, align 4
  %41 = load ptr, ptr %11, align 8
  %42 = getelementptr inbounds nuw %struct.PLpgSQL_row, ptr %41, i32 0, i32 10
  %43 = load ptr, ptr %42, align 8
  %44 = getelementptr inbounds i32, ptr %43, i64 0
  store i32 %40, ptr %44, align 4
  %45 = load ptr, ptr %11, align 8
  call void @plpgsql_adddatum(ptr noundef %45)
  %46 = load ptr, ptr %11, align 8
  call void @llvm.lifetime.end.p0(i64 8, ptr %11) #10
  ret ptr %46
}