; Function Attrs: nounwind uwtable
define internal fastcc noundef ptr @make_scalar_list1(ptr noundef %0, ptr noundef nonnull readonly captures(none) %1, i32 noundef %2, i32 noundef %3, ptr noundef %4) unnamed_addr #0 {
  tail call fastcc void @check_assignable(ptr noundef nonnull %1, i32 noundef %3, ptr noundef %4)
  %6 = tail call ptr @palloc0(i64 noundef 64) #12
  store i32 1, ptr %6, align 8
  %7 = getelementptr inbounds nuw i8, ptr %6, i64 8
  store ptr @.str.8, ptr %7, align 8
  %8 = getelementptr inbounds nuw i8, ptr %6, i64 16
  store i32 %2, ptr %8, align 8
  %9 = getelementptr inbounds nuw i8, ptr %6, i64 32
  store ptr null, ptr %9, align 8
  %10 = getelementptr inbounds nuw i8, ptr %6, i64 40
  store i32 1, ptr %10, align 8
  %11 = tail call ptr @palloc(i64 noundef 8) #12
  %12 = getelementptr inbounds nuw i8, ptr %6, i64 48
  store ptr %11, ptr %12, align 8
  %13 = tail call ptr @palloc(i64 noundef 4) #12
  %14 = getelementptr inbounds nuw i8, ptr %6, i64 56
  store ptr %13, ptr %14, align 8
  %15 = load ptr, ptr %12, align 8
  store ptr %0, ptr %15, align 8
  %16 = getelementptr inbounds nuw i8, ptr %1, i64 4
  %17 = load i32, ptr %16, align 4
  %18 = load ptr, ptr %14, align 8
  store i32 %17, ptr %18, align 4
  tail call void @plpgsql_adddatum(ptr noundef nonnull %6) #12
  ret ptr %6
}